target datalayout = "e-m:e-p270:32:32-p271:32:32-p272:64:64-i64:64-i128:128-f80:128-n8:16:32:64-S128"
target triple = "x86_64-pc-linux-gnu"

%struct._object = type { %union.anon, ptr }
%union.anon = type { i64 }
%struct.PyVarObject = type { %struct._object, i64 }
%struct._typeobject = type { %struct.PyVarObject, ptr, i64, i64, ptr, i64, ptr, ptr, ptr, ptr, ptr, ptr, ptr, ptr, ptr, ptr, ptr, ptr, ptr, i64, ptr, ptr, ptr, ptr, i64, ptr, ptr, ptr, ptr, ptr, ptr, ptr, ptr, ptr, i64, ptr, ptr, ptr, ptr, ptr, ptr, ptr, ptr, ptr, ptr, ptr, i32, ptr, ptr, i8, i16 }
%struct._longobject = type { %struct._object, %struct._PyLongValue }
%struct._PyLongValue = type { i64, [1 x i32] }
%struct.anon = type { i32, i32 }

@PyExc_OverflowError = external global ptr, align 8
@.str = private unnamed_addr constant [49 x i8] c"cannot fit '%.200s' into an offset-sized integer\00", align 1

; Function Attrs: alwaysinline nounwind uwtable
define internal i32 @_Py_IsImmortal(ptr noundef %0) #4 {
  %2 = alloca ptr, align 8
  store ptr %0, ptr %2, align 8, !tbaa !4
  %3 = load ptr, ptr %2, align 8, !tbaa !4
  %4 = getelementptr inbounds nuw %struct._object, ptr %3, i32 0, i32 0
  %5 = getelementptr inbounds nuw %struct.anon, ptr %4, i32 0, i32 0
  %6 = load i32, ptr %5, align 8, !tbaa !28
  %7 = icmp slt i32 %6, 0
  %8 = zext i1 %7 to i32
  ret i32 %8
}

; Function Attrs: alwaysinline nounwind uwtable
define internal void @Py_DECREF(ptr noundef %0) #4 {
  %2 = alloca ptr, align 8
  store ptr %0, ptr %2, align 8, !tbaa !4
  %3 = load ptr, ptr %2, align 8, !tbaa !4
  %4 = call i32 @_Py_IsImmortal(ptr noundef %3)
  %5 = icmp ne i32 %4, 0
  br i1 %5, label %6, label %7

6:                                                ; preds = %1
  br label %16

7:                                                ; preds = %1
  %8 = load ptr, ptr %2, align 8, !tbaa !4
  %9 = getelementptr inbounds nuw %struct._object, ptr %8, i32 0, i32 0
  %10 = getelementptr inbounds nuw %struct.anon, ptr %9, i32 0, i32 0
  %11 = load i32, ptr %10, align 8, !tbaa !28
  %12 = add i32 %11, -1
  store i32 %12, ptr %10, align 8, !tbaa !28
  %13 = icmp eq i32 %12, 0
  br i1 %13, label %14, label %16

14:                                               ; preds = %7
  %15 = load ptr, ptr %2, align 8, !tbaa !4
  call void @_Py_Dealloc(ptr noundef %15)
  br label %16

16:                                               ; preds = %6, %14, %7
  ret void
}

; Function Attrs: inlinehint nounwind uwtable
define internal ptr @_Py_TYPE(ptr noundef %0) #3 {
  %2 = alloca ptr, align 8
  store ptr %0, ptr %2, align 8, !tbaa !4
  %3 = load ptr, ptr %2, align 8, !tbaa !4
  %4 = getelementptr inbounds nuw %struct._object, ptr %3, i32 0, i32 1
  %5 = load ptr, ptr %4, align 8, !tbaa !27
  ret ptr %5
}

; Function Attrs: inlinehint nounwind uwtable
define internal zeroext i1 @_PyLong_IsNegative(ptr noundef %0) #3 {
  %2 = alloca ptr, align 8
  store ptr %0, ptr %2, align 8, !tbaa !22
  %3 = load ptr, ptr %2, align 8, !tbaa !22
  %4 = getelementptr inbounds nuw %struct._longobject, ptr %3, i32 0, i32 1
  %5 = getelementptr inbounds nuw %struct._PyLongValue, ptr %4, i32 0, i32 0
  %6 = load i64, ptr %5, align 8, !tbaa !24
  %7 = and i64 %6, 3
  %8 = icmp eq i64 %7, 2
  ret i1 %8
}

; Function Attrs: nounwind uwtable
define hidden i64 @PyNumber_AsOff_t(ptr noundef %0, ptr noundef %1) #0 {
  %3 = alloca i64, align 8
  %4 = alloca ptr, align 8
  %5 = alloca ptr, align 8
  %6 = alloca i64, align 8
  %7 = alloca ptr, align 8
  %8 = alloca ptr, align 8
  %9 = alloca i32, align 4
  store ptr %0, ptr %4, align 8, !tbaa !4
  store ptr %1, ptr %5, align 8, !tbaa !4
  call void @llvm.lifetime.start.p0(i64 8, ptr %6) #7
  call void @llvm.lifetime.start.p0(i64 8, ptr %7) #7
  call void @llvm.lifetime.start.p0(i64 8, ptr %8) #7
  %10 = load ptr, ptr %4, align 8, !tbaa !4
  %11 = call ptr @_PyNumber_Index(ptr noundef %10)
  store ptr %11, ptr %8, align 8, !tbaa !4
  %12 = load ptr, ptr %8, align 8, !tbaa !4
  %13 = icmp eq ptr %12, null
  br i1 %13, label %14, label %15

14:                                               ; preds = %2
  store i64 -1, ptr %3, align 8
  store i32 1, ptr %9, align 4
  br label %50

15:                                               ; preds = %2
  %16 = load ptr, ptr %8, align 8, !tbaa !4
  %17 = call i64 @PyLong_AsSsize_t(ptr noundef %16)
  store i64 %17, ptr %6, align 8, !tbaa !9
  %18 = load i64, ptr %6, align 8, !tbaa !9
  %19 = icmp ne i64 %18, -1
  br i1 %19, label %23, label %20

20:                                               ; preds = %15
  %21 = call ptr @PyErr_Occurred()
  store ptr %21, ptr %7, align 8, !tbaa !4
  %22 = icmp ne ptr %21, null
  br i1 %22, label %24, label %23

23:                                               ; preds = %20, %15
  br label %47

24:                                               ; preds = %20
  %25 = load ptr, ptr %7, align 8, !tbaa !4
  %26 = load ptr, ptr @PyExc_OverflowError, align 8, !tbaa !4
  %27 = call i32 @PyErr_GivenExceptionMatches(ptr noundef %25, ptr noundef %26)
  %28 = icmp ne i32 %27, 0
  br i1 %28, label %30, label %29

29:                                               ; preds = %24
  br label %47

30:                                               ; preds = %24
  call void @PyErr_Clear()
  %31 = load ptr, ptr %5, align 8, !tbaa !4
  %32 = icmp ne ptr %31, null
  br i1 %32, label %39, label %33

33:                                               ; preds = %30
  %34 = load ptr, ptr %8, align 8, !tbaa !4
  %35 = call zeroext i1 @_PyLong_IsNegative(ptr noundef %34)
  br i1 %35, label %36, label %37

36:                                               ; preds = %33
  store i64 -9223372036854775808, ptr %6, align 8, !tbaa !9
  br label %38

37:                                               ; preds = %33
  store i64 9223372036854775807, ptr %6, align 8, !tbaa !9
  br label %38

38:                                               ; preds = %37, %36
  br label %46

39:                                               ; preds = %30
  %40 = load ptr, ptr %5, align 8, !tbaa !4
  %41 = load ptr, ptr %4, align 8, !tbaa !4
  %42 = call ptr @_Py_TYPE(ptr noundef %41)
  %43 = getelementptr inbounds nuw %struct._typeobject, ptr %42, i32 0, i32 1
  %44 = load ptr, ptr %43, align 8, !tbaa !11
  %45 = call ptr (ptr, ptr, ...) @PyErr_Format(ptr noundef %40, ptr noundef @.str, ptr noundef %44)
  br label %46

46:                                               ; preds = %39, %38
  br label %47

47:                                               ; preds = %46, %29, %23
  %48 = load ptr, ptr %8, align 8, !tbaa !4
  call void @Py_DECREF(ptr noundef %48)
  %49 = load i64, ptr %6, align 8, !tbaa !9
  store i64 %49, ptr %3, align 8
  store i32 1, ptr %9, align 4
  br label %50

50:                                               ; preds = %47, %14
  call void @llvm.lifetime.end.p0(i64 8, ptr %8) #7
  call void @llvm.lifetime.end.p0(i64 8, ptr %7) #7
  call void @llvm.lifetime.end.p0(i64 8, ptr %6) #7
  %51 = load i64, ptr %3, align 8
  ret i64 %51
}