; Function Attrs: nounwind uwtable
define hidden i64 @PyNumber_AsOff_t(ptr noundef %0, ptr noundef %1) local_unnamed_addr #0 {
  %3 = tail call ptr @_PyNumber_Index(ptr noundef %0) #5
  %4 = icmp eq ptr %3, null
  br i1 %4, label %Py_DECREF.exit, label %5

5:                                                ; preds = %2
  %6 = tail call i64 @PyLong_AsSsize_t(ptr noundef nonnull %3) #5
  %.not = icmp eq i64 %6, -1
  br i1 %.not, label %7, label %22

7:                                                ; preds = %5
  %8 = tail call ptr @PyErr_Occurred() #5
  %.not16 = icmp eq ptr %8, null
  br i1 %.not16, label %22, label %9

9:                                                ; preds = %7
  %10 = load ptr, ptr @PyExc_OverflowError, align 8, !tbaa !4
  %11 = tail call i32 @PyErr_GivenExceptionMatches(ptr noundef nonnull %8, ptr noundef %10) #5
  %.not17 = icmp eq i32 %11, 0
  br i1 %.not17, label %22, label %12

12:                                               ; preds = %9
  tail call void @PyErr_Clear() #5
  %.not18 = icmp eq ptr %1, null
  br i1 %.not18, label %13, label %17

13:                                               ; preds = %12
  %14 = getelementptr i8, ptr %3, i64 16
  %.val = load i64, ptr %14, align 8, !tbaa !9
  %15 = and i64 %.val, 3
  %16 = icmp eq i64 %15, 2
  %. = select i1 %16, i64 -9223372036854775808, i64 9223372036854775807
  br label %22

17:                                               ; preds = %12
  %18 = getelementptr i8, ptr %0, i64 8
  %.val19 = load ptr, ptr %18, align 8, !tbaa !15
  %19 = getelementptr inbounds nuw i8, ptr %.val19, i64 24
  %20 = load ptr, ptr %19, align 8, !tbaa !16
  %21 = tail call ptr (ptr, ptr, ...) @PyErr_Format(ptr noundef nonnull %1, ptr noundef nonnull @.str, ptr noundef %20) #5
  br label %22

22:                                               ; preds = %13, %17, %9, %5, %7
  %.011 = phi i64 [ %6, %5 ], [ -1, %17 ], [ -1, %9 ], [ -1, %7 ], [ %., %13 ]
  %23 = load i32, ptr %3, align 8, !tbaa !25
  %.not.i = icmp sgt i32 %23, -1
  br i1 %.not.i, label %24, label %Py_DECREF.exit

24:                                               ; preds = %22
  %25 = add nsw i32 %23, -1
  store i32 %25, ptr %3, align 8, !tbaa !25
  %26 = icmp eq i32 %25, 0
  br i1 %26, label %27, label %Py_DECREF.exit

27:                                               ; preds = %24
  tail call void @_Py_Dealloc(ptr noundef nonnull %3) #5
  br label %Py_DECREF.exit

Py_DECREF.exit:                                   ; preds = %27, %24, %22, %2
  %.0 = phi i64 [ -1, %2 ], [ %.011, %22 ], [ %.011, %24 ], [ %.011, %27 ]
  ret i64 %.0
}